Certificate:
    Data:
        Version: 3 (0x2)
        Serial Number: 1 (0x1)
    Signature Algorithm: sha256WithRSAEncryption
        Issuer: C=cn, ST=shanghai, L=shanghai, O=xiaoxunkeji, OU=xiaoxunkeji, CN=suweishuai/emailAddress=sample@qq.com
        Validity
            Not Before: Nov 15 03:35:15 2017 GMT
            Not After : Nov 15 03:35:15 2018 GMT
        Subject: C=cn, ST=shanghai, O=xiaoxunkeji, OU=xiaoxunkeji, CN=suweishuai/emailAddress=sample@qq.com
        Subject Public Key Info:
            Public Key Algorithm: rsaEncryption
                Public-Key: (1024 bit)
                Modulus:
                    00:a6:1b:9e:35:ec:cb:97:81:13:af:d5:c9:dd:6f:
                    4a:dc:cb:c9:cb:78:8c:24:ad:05:3b:58:4c:ca:e9:
                    9f:5f:bb:94:0d:1f:36:82:17:63:eb:3a:44:a6:49:
                    af:1b:cb:20:dc:f7:50:4d:63:43:0e:23:20:59:a8:
                    92:b5:d9:cc:12:a3:5a:57:0b:04:93:94:98:d8:a3:
                    f8:51:45:a3:30:14:47:6c:f1:63:cf:e1:ac:45:22:
                    f8:ce:ec:ca:a6:2a:a1:76:cc:fd:e5:ce:cf:84:f3:
                    89:43:8c:30:00:34:36:e9:38:da:df:c5:a0:34:34:
                    88:b3:f1:7b:5c:15:ac:10:31
                Exponent: 65537 (0x10001)
        X509v3 extensions:
            X509v3 Basic Constraints: 
                CA:FALSE
            Netscape Comment: 
                OpenSSL Generated Certificate
            X509v3 Subject Key Identifier: 
                36:92:06:01:CC:1F:F3:F8:78:26:FC:D6:C3:02:AB:AD:0E:4A:C4:2C
            X509v3 Authority Key Identifier: 
                DirName:/C=cn/ST=shanghai/L=shanghai/O=xiaoxunkeji/OU=xiaoxunkeji/CN=suweishuai/emailAddress=sample@qq.com
                serial:F6:14:64:9E:40:C7:76:7E

    Signature Algorithm: sha256WithRSAEncryption
         94:4e:55:36:be:a4:0d:b2:d6:80:b7:69:dc:b9:02:8b:78:e2:
         b9:08:6a:95:74:06:3e:f7:ff:b1:b9:e0:47:90:e9:dc:7d:92:
         a5:74:c1:5b:e6:48:51:d1:b2:de:1f:40:7e:b7:32:ed:75:d5:
         09:8e:51:a9:ac:5c:eb:b2:4a:00:31:e5:e8:e5:60:6a:b2:3f:
         c4:81:58:48:4c:40:e4:55:29:f3:43:fd:78:f1:5f:a7:85:ce:
         22:32:55:13:6b:7c:69:d7:36:b4:0c:8b:02:42:79:6e:23:b6:
         0d:09:a0:5e:2c:69:e7:f2:8a:10:38:28:f4:1f:53:5f:26:3d:
         d2:ca:82:5f:25:14:c2:3a:c5:ae:86:2f:39:15:c7:1f:77:c7:
         f8:7d:00:b6:ae:d5:c9:f8:71:a3:c2:f6:35:7f:6d:ef:c9:dd:
         da:6b:64:a3:6f:2d:97:26:d8:20:46:04:e3:b8:f8:10:b0:1e:
         45:76:e9:14:3d:99:a9:56:6e:41:d7:4e:a8:fd:3b:4f:10:a5:
         f6:6c:d8:d9:5e:77:b7:75:13:67:8b:7d:89:bf:5b:44:47:57:
         26:66:05:3b:43:66:3d:83:4e:50:d7:d7:da:9b:d3:7a:a2:4c:
         a3:38:ab:16:cc:1a:54:be:f8:74:a6:1c:87:7f:64:3a:91:8b:
         a8:19:eb:54
-----BEGIN CERTIFICATE-----
MIIEGzCCAwOgAwIBAgIBATANBgkqhkiG9w0BAQsFADCBkjELMAkGA1UEBhMCY24x
ETAPBgNVBAgMCHNoYW5naGFpMREwDwYDVQQHDAhzaGFuZ2hhaTEUMBIGA1UECgwL
eGlhb3h1bmtlamkxFDASBgNVBAsMC3hpYW94dW5rZWppMRMwEQYDVQQDDApzdXdl
aXNodWFpMRwwGgYJKoZIhvcNAQkBFg1zYW1wbGVAcXEuY29tMB4XDTE3MTExNTAz
MzUxNVoXDTE4MTExNTAzMzUxNVowfzELMAkGA1UEBhMCY24xETAPBgNVBAgMCHNo
YW5naGFpMRQwEgYDVQQKDAt4aWFveHVua2VqaTEUMBIGA1UECwwLeGlhb3h1bmtl
amkxEzARBgNVBAMMCnN1d2Vpc2h1YWkxHDAaBgkqhkiG9w0BCQEWDXNhbXBsZUBx
cS5jb20wgZ8wDQYJKoZIhvcNAQEBBQADgY0AMIGJAoGBAKYbnjXsy5eBE6/Vyd1v
StzLyct4jCStBTtYTMrpn1+7lA0fNoIXY+s6RKZJrxvLINz3UE1jQw4jIFmokrXZ
zBKjWlcLBJOUmNij+FFFozAUR2zxY8/hrEUi+M7syqYqoXbM/eXOz4TziUOMMAA0
Nuk42t/FoDQ0iLPxe1wVrBAxAgMBAAGjggEQMIIBDDAJBgNVHRMEAjAAMCwGCWCG
SAGG+EIBDQQfFh1PcGVuU1NMIEdlbmVyYXRlZCBDZXJ0aWZpY2F0ZTAdBgNVHQ4E
FgQUNpIGAcwf8/h4JvzWwwKrrQ5KxCwwgbEGA1UdIwSBqTCBpqGBmKSBlTCBkjEL
MAkGA1UEBhMCY24xETAPBgNVBAgMCHNoYW5naGFpMREwDwYDVQQHDAhzaGFuZ2hh
aTEUMBIGA1UECgwLeGlhb3h1bmtlamkxFDASBgNVBAsMC3hpYW94dW5rZWppMRMw
EQYDVQQDDApzdXdlaXNodWFpMRwwGgYJKoZIhvcNAQkBFg1zYW1wbGVAcXEuY29t
ggkA9hRknkDHdn4wDQYJKoZIhvcNAQELBQADggEBAJROVTa+pA2y1oC3ady5Aot4
4rkIapV0Bj73/7G54EeQ6dx9kqV0wVvmSFHRst4fQH63Mu111QmOUamsXOuySgAx
5ejlYGqyP8SBWEhMQORVKfND/XjxX6eFziIyVRNrfGnXNrQMiwJCeW4jtg0JoF4s
aefyihA4KPQfU18mPdLKgl8lFMI6xa6GLzkVxx93x/h9ALau1cn4caPC9jV/be/J
3dprZKNvLZcm2CBGBOO4+BCwHkV26RQ9malWbkHXTqj9O08QpfZs2Nled7d1E2eL
fYm/W0RHVyZmBTtDZj2DTlDX19qb03qiTKM4qxbMGlS++HSmHId/ZDqRi6gZ61Q=
-----END CERTIFICATE-----
